Certificate:
    Data:
        Version: 3 (0x2)
        Serial Number: 1 (0x1)
        Signature Algorithm: sha512WithRSAEncryption
        Issuer: C=US, ST=CA, L=San Francisco, O=Opsee, OU=Bastion CA, CN=server ca/emailAddress=cliff@leaninto.it
        Validity
            Not Before: Dec 27 21:11:05 2014 GMT
            Not After : Dec 26 21:11:05 2017 GMT
        Subject: C=US, ST=CA, L=San Francisco, O=Opsee, OU=Bastion CA, CN=server 1/emailAddress=cliff@leaninto.it
        Subject Public Key Info:
            Public Key Algorithm: rsaEncryption
            RSA Public Key: (1024 bit)
                Modulus (1024 bit):
                    00:b6:cc:e5:58:78:ed:3f:67:2f:c4:07:99:15:43:
                    a4:8d:59:e2:6d:37:be:7b:ec:50:59:4e:4c:6a:f9:
                    36:ef:4c:4f:7f:10:a3:4a:3b:e6:34:71:f2:36:1d:
                    32:04:fa:3e:d4:5c:60:79:b6:fc:df:27:5e:f4:94:
                    dd:6c:17:cb:75:4b:00:92:76:eb:3f:1f:7e:35:e9:
                    5e:d0:8c:92:d4:00:d3:af:e1:73:72:e9:1d:79:45:
                    46:8f:9d:9b:aa:ce:9a:71:1a:2d:33:f1:ee:ff:c0:
                    06:70:e8:df:ab:07:c1:66:0e:aa:78:94:f2:b3:d6:
                    36:17:e4:e8:e8:eb:a9:34:2d
                Exponent: 65537 (0x10001)
        X509v3 extensions:
            X509v3 Basic Constraints: 
                CA:FALSE
            X509v3 Subject Alternative Name: 
                IP Address:127.0.0.1
    Signature Algorithm: sha512WithRSAEncryption
        4a:12:e5:28:80:77:04:28:db:1e:e2:18:3f:f6:e3:13:ed:4a:
        0d:6b:6c:e8:30:df:11:8c:a3:d4:ec:58:eb:dc:41:45:53:75:
        5c:87:fd:d1:76:f2:3d:42:69:2f:48:ad:2e:9f:43:6c:98:5d:
        9a:dc:af:56:35:fa:f4:80:f6:f5:8c:e5:79:75:3b:90:f7:dd:
        3e:90:82:07:4a:f2:ed:a5:ce:50:5c:47:cd:82:e3:e5:36:db:
        06:ad:cb:cc:0e:d4:30:70:e1:7e:97:ef:aa:7b:de:0e:41:a3:
        ec:4b:21:12:eb:d6:81:70:56:f6:45:bd:0c:58:28:b4:1a:9c:
        5f:01
-----BEGIN CERTIFICATE-----
MIICrzCCAhigAwIBAgIBATANBgkqhkiG9w0BAQ0FADCBjTELMAkGA1UEBhMCVVMx
CzAJBgNVBAgTAkNBMRYwFAYDVQQHEw1TYW4gRnJhbmNpc2NvMQ4wDAYDVQQKEwVP
cHNlZTETMBEGA1UECxMKQmFzdGlvbiBDQTESMBAGA1UEAxMJc2VydmVyIGNhMSAw
HgYJKoZIhvcNAQkBFhFjbGlmZkBsZWFuaW50by5pdDAeFw0xNDEyMjcyMTExMDVa
Fw0xNzEyMjYyMTExMDVaMIGMMQswCQYDVQQGEwJVUzELMAkGA1UECBMCQ0ExFjAU
BgNVBAcTDVNhbiBGcmFuY2lzY28xDjAMBgNVBAoTBU9wc2VlMRMwEQYDVQQLEwpC
YXN0aW9uIENBMREwDwYDVQQDEwhzZXJ2ZXIgMTEgMB4GCSqGSIb3DQEJARYRY2xp
ZmZAbGVhbmludG8uaXQwgZ8wDQYJKoZIhvcNAQEBBQADgY0AMIGJAoGBALbM5Vh4
7T9nL8QHmRVDpI1Z4m03vnvsUFlOTGr5Nu9MT38Qo0o75jRx8jYdMgT6PtRcYHm2
/N8nXvSU3WwXy3VLAJJ26z8ffjXpXtCMktQA06/hc3LpHXlFRo+dm6rOmnEaLTPx
7v/ABnDo36sHwWYOqniU8rPWNhfk6OjrqTQtAgMBAAGjHjAcMAkGA1UdEwQCMAAw
DwYDVR0RBAgwBocEfwAAATANBgkqhkiG9w0BAQ0FAAOBgQBKEuUogHcEKNse4hg/
9uMT7UoNa2zoMN8RjKPU7Fjr3EFFU3Vch/3RdvI9QmkvSK0un0NsmF2a3K9WNfr0
gPb1jOV5dTuQ990+kIIHSvLtpc5QXEfNguPlNtsGrcvMDtQwcOF+l++qe94OQaPs
SyES69aBcFb2Rb0MWCi0GpxfAQ==
-----END CERTIFICATE-----
