Certificate:
    Data:
        Version: 3 (0x2)
        Serial Number: 1 (0x1)
        Signature Algorithm: sha512WithRSAEncryption
        Issuer: C=US, ST=CA, L=San Francisco, O=Opsee, OU=Bastion CA, CN=client ca/emailAddress=cliff@leaninto.it
        Validity
            Not Before: Dec 27 21:11:19 2014 GMT
            Not After : Dec 26 21:11:19 2017 GMT
        Subject: C=US, ST=CA, L=San Francisco, O=Opsee, OU=Bastion CA, CN=client 1/emailAddress=cliff@leaninto.it
        Subject Public Key Info:
            Public Key Algorithm: rsaEncryption
            RSA Public Key: (1024 bit)
                Modulus (1024 bit):
                    00:9b:25:e4:d6:23:62:9b:58:bb:3c:c1:9e:31:62:
                    5b:a5:d6:1f:ab:77:64:e0:7f:95:9b:3c:c1:e6:18:
                    34:a7:1c:ed:40:85:1f:86:ae:51:94:8c:bf:4f:3d:
                    2f:ea:63:19:5a:ef:d3:b7:86:6b:4d:96:37:26:eb:
                    5a:9b:0c:59:d8:f5:31:41:a8:2c:7e:e0:6f:e5:97:
                    68:5f:87:3d:3a:d3:0e:af:79:e9:a1:7b:57:30:d6:
                    e4:40:35:70:c5:42:cf:59:b6:94:94:7b:fc:8d:68:
                    96:50:9b:12:ec:06:95:39:6f:9d:68:3b:9a:56:91:
                    67:b2:4f:ae:30:61:5d:40:99
                Exponent: 65537 (0x10001)
        X509v3 extensions:
            X509v3 Basic Constraints: 
                CA:FALSE
            X509v3 Subject Alternative Name: 
                IP Address:127.0.0.1
    Signature Algorithm: sha512WithRSAEncryption
        ad:70:b3:72:a3:a6:03:2e:f7:bb:ad:92:72:97:d6:7c:09:e3:
        55:0c:dc:f3:99:91:64:9d:b4:2f:e6:8c:75:16:fd:af:3f:c0:
        bf:d7:de:f6:7f:22:80:57:ee:23:14:00:df:a7:8b:91:3e:10:
        47:7f:ee:b6:97:f7:b7:dc:fc:ec:f7:8d:40:6d:b9:52:9e:b1:
        5f:d4:a9:d9:0a:58:e5:0d:8a:bf:c3:49:e2:dc:ac:0d:5a:03:
        24:b3:2a:5d:7f:27:45:d6:f2:3c:40:0d:de:9d:d0:79:c7:53:
        a0:72:a2:a2:7c:bf:cb:2c:18:ec:7f:9b:4d:1f:b5:cc:56:a8:
        7c:fd
-----BEGIN CERTIFICATE-----
MIICrzCCAhigAwIBAgIBATANBgkqhkiG9w0BAQ0FADCBjTELMAkGA1UEBhMCVVMx
CzAJBgNVBAgTAkNBMRYwFAYDVQQHEw1TYW4gRnJhbmNpc2NvMQ4wDAYDVQQKEwVP
cHNlZTETMBEGA1UECxMKQmFzdGlvbiBDQTESMBAGA1UEAxMJY2xpZW50IGNhMSAw
HgYJKoZIhvcNAQkBFhFjbGlmZkBsZWFuaW50by5pdDAeFw0xNDEyMjcyMTExMTla
Fw0xNzEyMjYyMTExMTlaMIGMMQswCQYDVQQGEwJVUzELMAkGA1UECBMCQ0ExFjAU
BgNVBAcTDVNhbiBGcmFuY2lzY28xDjAMBgNVBAoTBU9wc2VlMRMwEQYDVQQLEwpC
YXN0aW9uIENBMREwDwYDVQQDEwhjbGllbnQgMTEgMB4GCSqGSIb3DQEJARYRY2xp
ZmZAbGVhbmludG8uaXQwgZ8wDQYJKoZIhvcNAQEBBQADgY0AMIGJAoGBAJsl5NYj
YptYuzzBnjFiW6XWH6t3ZOB/lZs8weYYNKcc7UCFH4auUZSMv089L+pjGVrv07eG
a02WNybrWpsMWdj1MUGoLH7gb+WXaF+HPTrTDq956aF7VzDW5EA1cMVCz1m2lJR7
/I1ollCbEuwGlTlvnWg7mlaRZ7JPrjBhXUCZAgMBAAGjHjAcMAkGA1UdEwQCMAAw
DwYDVR0RBAgwBocEfwAAATANBgkqhkiG9w0BAQ0FAAOBgQCtcLNyo6YDLve7rZJy
l9Z8CeNVDNzzmZFknbQv5ox1Fv2vP8C/1972fyKAV+4jFADfp4uRPhBHf+62l/e3
3Pzs941AbblSnrFf1KnZCljlDYq/w0ni3KwNWgMksypdfydF1vI8QA3endB5x1Og
cqKifL/LLBjsf5tNH7XMVqh8/Q==
-----END CERTIFICATE-----
