Certificate:
    Data:
        Version: 3 (0x2)
        Serial Number: 2 (0x2)
        Signature Algorithm: sha512WithRSAEncryption
        Issuer: C=US, ST=CA, L=San Francisco, O=Opsee, OU=Bastion CA, CN=root/emailAddress=cliff@leaninto.it
        Validity
            Not Before: Dec 27 21:10:39 2014 GMT
            Not After : Dec 26 21:10:39 2017 GMT
        Subject: C=US, ST=CA, L=San Francisco, O=Opsee, OU=Bastion CA, CN=server ca/emailAddress=cliff@leaninto.it
        Subject Public Key Info:
            Public Key Algorithm: rsaEncryption
            RSA Public Key: (1024 bit)
                Modulus (1024 bit):
                    00:b1:a7:55:78:ff:b2:66:b3:1f:f5:54:aa:8e:65:
                    cd:79:e1:95:90:3b:c4:4d:ed:8e:6e:c2:d5:26:4d:
                    a6:0f:b1:72:19:00:b5:40:e9:a2:0e:da:38:a6:f1:
                    67:03:d2:d3:fd:73:24:86:32:5b:c7:3e:5e:01:6f:
                    7a:29:17:97:48:5d:4a:86:fb:26:11:e5:d5:e0:1d:
                    46:9f:02:16:e9:fe:36:a9:c5:6a:db:b3:eb:8f:bc:
                    7d:23:99:ac:7a:ee:14:1e:d7:ba:a8:7e:23:e0:0b:
                    79:59:ca:0e:29:c1:c1:5f:a1:7c:b2:18:7e:f9:8c:
                    de:26:e8:e6:ea:45:62:69:e5
                Exponent: 65537 (0x10001)
        X509v3 extensions:
            X509v3 Subject Key Identifier: 
                9B:62:A5:09:ED:49:DC:55:9B:49:A0:C2:4E:6D:6E:07:7C:75:81:C0
            X509v3 Authority Key Identifier: 
                keyid:BB:EA:F9:62:6B:90:4E:13:47:90:B9:59:F7:91:6C:D2:6D:6C:DE:91
                DirName:/C=US/ST=CA/L=San Francisco/O=Opsee/OU=Bastion CA/CN=root/emailAddress=cliff@leaninto.it
                serial:DD:64:84:39:8A:7A:BD:75

            X509v3 Basic Constraints: 
                CA:TRUE
    Signature Algorithm: sha512WithRSAEncryption
        10:c2:d2:19:05:2b:ea:ef:85:6b:d8:e2:c2:c8:b5:66:1d:44:
        b1:8b:5b:29:ee:df:cc:40:14:66:5d:a9:b2:89:5a:6c:16:8e:
        d8:dd:7a:a9:ed:fd:7e:71:f8:05:37:a3:d3:2c:e6:8d:54:4c:
        e2:1c:de:1b:51:1f:41:19:e5:19:d7:c3:36:7b:26:25:af:2e:
        b3:6d:38:9a:21:23:65:f1:07:f5:98:8c:79:73:6b:00:c4:51:
        b8:a1:ce:62:09:b0:5f:e2:90:9c:73:8c:83:9e:5e:42:11:17:
        df:45:d3:71:c6:e0:c6:71:81:09:b4:a7:e5:31:1c:28:20:c2:
        4a:c9
-----BEGIN CERTIFICATE-----
MIIDfjCCAuegAwIBAgIBAjANBgkqhkiG9w0BAQ0FADCBiDELMAkGA1UEBhMCVVMx
CzAJBgNVBAgTAkNBMRYwFAYDVQQHEw1TYW4gRnJhbmNpc2NvMQ4wDAYDVQQKEwVP
cHNlZTETMBEGA1UECxMKQmFzdGlvbiBDQTENMAsGA1UEAxMEcm9vdDEgMB4GCSqG
SIb3DQEJARYRY2xpZmZAbGVhbmludG8uaXQwHhcNMTQxMjI3MjExMDM5WhcNMTcx
MjI2MjExMDM5WjCBjTELMAkGA1UEBhMCVVMxCzAJBgNVBAgTAkNBMRYwFAYDVQQH
Ew1TYW4gRnJhbmNpc2NvMQ4wDAYDVQQKEwVPcHNlZTETMBEGA1UECxMKQmFzdGlv
biBDQTESMBAGA1UEAxMJc2VydmVyIGNhMSAwHgYJKoZIhvcNAQkBFhFjbGlmZkBs
ZWFuaW50by5pdDCBnzANBgkqhkiG9w0BAQEFAAOBjQAwgYkCgYEAsadVeP+yZrMf
9VSqjmXNeeGVkDvETe2ObsLVJk2mD7FyGQC1QOmiDto4pvFnA9LT/XMkhjJbxz5e
AW96KReXSF1KhvsmEeXV4B1GnwIW6f42qcVq27Prj7x9I5mseu4UHte6qH4j4At5
WcoOKcHBX6F8shh++YzeJujm6kViaeUCAwEAAaOB8DCB7TAdBgNVHQ4EFgQUm2Kl
Ce1J3FWbSaDCTm1uB3x1gcAwgb0GA1UdIwSBtTCBsoAUu+r5YmuQThNHkLlZ95Fs
0m1s3pGhgY6kgYswgYgxCzAJBgNVBAYTAlVTMQswCQYDVQQIEwJDQTEWMBQGA1UE
BxMNU2FuIEZyYW5jaXNjbzEOMAwGA1UEChMFT3BzZWUxEzARBgNVBAsTCkJhc3Rp
b24gQ0ExDTALBgNVBAMTBHJvb3QxIDAeBgkqhkiG9w0BCQEWEWNsaWZmQGxlYW5p
bnRvLml0ggkA3WSEOYp6vXUwDAYDVR0TBAUwAwEB/zANBgkqhkiG9w0BAQ0FAAOB
gQAQwtIZBSvq74Vr2OLCyLVmHUSxi1sp7t/MQBRmXamyiVpsFo7Y3Xqp7f1+cfgF
N6PTLOaNVEziHN4bUR9BGeUZ18M2eyYlry6zbTiaISNl8Qf1mIx5c2sAxFG4oc5i
CbBf4pCcc4yDnl5CERffRdNxxuDGcYEJtKflMRwoIMJKyQ==
-----END CERTIFICATE-----
