Certificate:
    Data:
        Version: 3 (0x2)
        Serial Number: 1 (0x1)
        Signature Algorithm: sha512WithRSAEncryption
        Issuer: C=US, ST=CA, L=San Francisco, O=Opsee, OU=Bastion CA, CN=root/emailAddress=cliff@leaninto.it
        Validity
            Not Before: Dec 27 21:06:33 2014 GMT
            Not After : Dec 26 21:06:33 2017 GMT
        Subject: C=US, ST=CA, L=San Francisco, O=Opsee, OU=Bastion CA, CN=client ca/emailAddress=cliff@leaninto.it
        Subject Public Key Info:
            Public Key Algorithm: rsaEncryption
            RSA Public Key: (1024 bit)
                Modulus (1024 bit):
                    00:b3:e9:c4:5f:db:2d:cd:ce:e2:d6:0b:62:a7:87:
                    15:54:d3:65:dc:a9:a1:cd:10:6c:69:69:91:18:ea:
                    c7:35:78:e6:9f:b5:d3:32:34:5a:39:9a:a6:71:41:
                    3c:ec:2f:e5:b5:39:35:4d:ce:8a:fc:db:d0:db:13:
                    06:21:3a:3c:8c:87:15:c8:b0:91:be:03:dc:c6:6c:
                    25:29:e9:c2:5c:e0:5b:84:ee:3a:ad:40:1b:e5:fa:
                    66:bc:d8:63:4a:69:d2:d5:76:e5:94:0f:06:d9:e7:
                    3c:76:46:ad:82:5b:b7:21:06:3b:a9:b4:04:12:e2:
                    e7:15:09:f5:6f:28:54:d4:61
                Exponent: 65537 (0x10001)
        X509v3 extensions:
            X509v3 Subject Key Identifier: 
                C7:20:C4:A6:87:10:42:37:7B:04:FC:09:AE:88:A0:D8:21:14:F2:BF
            X509v3 Authority Key Identifier: 
                keyid:BB:EA:F9:62:6B:90:4E:13:47:90:B9:59:F7:91:6C:D2:6D:6C:DE:91
                DirName:/C=US/ST=CA/L=San Francisco/O=Opsee/OU=Bastion CA/CN=root/emailAddress=cliff@leaninto.it
                serial:DD:64:84:39:8A:7A:BD:75

            X509v3 Basic Constraints: 
                CA:TRUE
    Signature Algorithm: sha512WithRSAEncryption
        91:04:56:10:b1:43:d0:e3:c6:61:0d:26:bb:38:05:ae:22:0d:
        f0:66:89:db:48:c0:ff:e3:0c:d2:26:e9:c4:00:c4:32:ca:9d:
        bd:54:09:77:ca:fc:0f:40:c1:43:34:00:a2:fd:14:7e:4d:ea:
        77:5f:2c:52:5c:0b:82:e3:2c:e6:4b:1e:00:04:6e:33:f6:82:
        08:8f:a0:cc:34:70:32:80:4d:9f:4f:dd:66:b2:ef:b7:15:6c:
        f6:ea:6c:96:3e:a0:b0:64:d4:bf:15:e2:db:b5:a6:d2:80:bd:
        f7:1c:cd:db:40:36:10:9b:8c:67:8b:54:e3:bf:c3:ca:b1:1e:
        c1:80
-----BEGIN CERTIFICATE-----
MIIDfjCCAuegAwIBAgIBATANBgkqhkiG9w0BAQ0FADCBiDELMAkGA1UEBhMCVVMx
CzAJBgNVBAgTAkNBMRYwFAYDVQQHEw1TYW4gRnJhbmNpc2NvMQ4wDAYDVQQKEwVP
cHNlZTETMBEGA1UECxMKQmFzdGlvbiBDQTENMAsGA1UEAxMEcm9vdDEgMB4GCSqG
SIb3DQEJARYRY2xpZmZAbGVhbmludG8uaXQwHhcNMTQxMjI3MjEwNjMzWhcNMTcx
MjI2MjEwNjMzWjCBjTELMAkGA1UEBhMCVVMxCzAJBgNVBAgTAkNBMRYwFAYDVQQH
Ew1TYW4gRnJhbmNpc2NvMQ4wDAYDVQQKEwVPcHNlZTETMBEGA1UECxMKQmFzdGlv
biBDQTESMBAGA1UEAxMJY2xpZW50IGNhMSAwHgYJKoZIhvcNAQkBFhFjbGlmZkBs
ZWFuaW50by5pdDCBnzANBgkqhkiG9w0BAQEFAAOBjQAwgYkCgYEAs+nEX9stzc7i
1gtip4cVVNNl3KmhzRBsaWmRGOrHNXjmn7XTMjRaOZqmcUE87C/ltTk1Tc6K/NvQ
2xMGITo8jIcVyLCRvgPcxmwlKenCXOBbhO46rUAb5fpmvNhjSmnS1XbllA8G2ec8
dkatglu3IQY7qbQEEuLnFQn1byhU1GECAwEAAaOB8DCB7TAdBgNVHQ4EFgQUxyDE
pocQQjd7BPwJroig2CEU8r8wgb0GA1UdIwSBtTCBsoAUu+r5YmuQThNHkLlZ95Fs
0m1s3pGhgY6kgYswgYgxCzAJBgNVBAYTAlVTMQswCQYDVQQIEwJDQTEWMBQGA1UE
BxMNU2FuIEZyYW5jaXNjbzEOMAwGA1UEChMFT3BzZWUxEzARBgNVBAsTCkJhc3Rp
b24gQ0ExDTALBgNVBAMTBHJvb3QxIDAeBgkqhkiG9w0BCQEWEWNsaWZmQGxlYW5p
bnRvLml0ggkA3WSEOYp6vXUwDAYDVR0TBAUwAwEB/zANBgkqhkiG9w0BAQ0FAAOB
gQCRBFYQsUPQ48ZhDSa7OAWuIg3wZonbSMD/4wzSJunEAMQyyp29VAl3yvwPQMFD
NACi/RR+Tep3XyxSXAuC4yzmSx4ABG4z9oIIj6DMNHAygE2fT91msu+3FWz26myW
PqCwZNS/FeLbtabSgL33HM3bQDYQm4xni1Tjv8PKsR7BgA==
-----END CERTIFICATE-----
